target datalayout = "e-m:e-p270:32:32-p271:32:32-p272:64:64-i64:64-i128:128-f80:128-n8:16:32:64-S128"
target triple = "x86_64-pc-linux-gnu"

%"class.OpenSubdiv::v3_6_0::Bfr::SurfaceFactory" = type { %"class.OpenSubdiv::v3_6_0::Bfr::SurfaceFactoryMeshAdapter", i32, %"class.OpenSubdiv::v3_6_0::Sdc::Options", %"class.OpenSubdiv::v3_6_0::Bfr::SurfaceFactory::Options", i8, i32, ptr }
%"class.OpenSubdiv::v3_6_0::Bfr::SurfaceFactoryMeshAdapter" = type { ptr }
%"class.OpenSubdiv::v3_6_0::Sdc::Options" = type { i8, i8, i8, i8 }
%"class.OpenSubdiv::v3_6_0::Bfr::SurfaceFactory::Options" = type <{ i64, ptr, i8, i8, i8, [5 x i8] }>
%"class.OpenSubdiv::v3_6_0::Bfr::Parameterization" = type { i8, i8, i16 }
%"class.OpenSubdiv::v3_6_0::Bfr::internal::SurfaceData" = type { %"class.OpenSubdiv::v3_6_0::Vtr::internal::StackBuffer.4", %"class.OpenSubdiv::v3_6_0::Bfr::Parameterization", i8, i8, i8, %"class.std::shared_ptr" }
%"class.OpenSubdiv::v3_6_0::Vtr::internal::StackBuffer.4" = type { ptr, i32, i32, [80 x i8], ptr }
%"class.std::shared_ptr" = type { %"class.std::__shared_ptr" }
%"class.std::__shared_ptr" = type { ptr, %"class.std::__shared_count" }
%"class.std::__shared_count" = type { ptr }

; Function Attrs: mustprogress uwtable
define linkonce_odr void @_ZN10OpenSubdiv6v3_6_03Vtr8internal11StackBufferIiLj20ELb1EE8allocateEj(ptr noundef nonnull align 8 dereferenceable(104) %0, i32 noundef %1) #1 comdat align 2 {
  %3 = alloca ptr, align 8
  %4 = alloca i32, align 4
  store ptr %0, ptr %3, align 8
  store i32 %1, ptr %4, align 4
  %5 = load ptr, ptr %3, align 8
  %6 = load i32, ptr %4, align 4
  %7 = zext i32 %6 to i64
  %8 = mul i64 %7, 4
  %9 = call noalias noundef nonnull ptr @_Znwm(i64 noundef %8) #11
  %10 = getelementptr inbounds nuw %"class.OpenSubdiv::v3_6_0::Vtr::internal::StackBuffer.4", ptr %5, i32 0, i32 4
  store ptr %9, ptr %10, align 8
  %11 = getelementptr inbounds nuw %"class.OpenSubdiv::v3_6_0::Vtr::internal::StackBuffer.4", ptr %5, i32 0, i32 4
  %12 = load ptr, ptr %11, align 8
  %13 = getelementptr inbounds nuw %"class.OpenSubdiv::v3_6_0::Vtr::internal::StackBuffer.4", ptr %5, i32 0, i32 0
  store ptr %12, ptr %13, align 8
  %14 = load i32, ptr %4, align 4
  %15 = getelementptr inbounds nuw %"class.OpenSubdiv::v3_6_0::Vtr::internal::StackBuffer.4", ptr %5, i32 0, i32 2
  store i32 %14, ptr %15, align 4
  ret void
}

; Function Attrs: mustprogress nounwind uwtable
define linkonce_odr void @_ZN10OpenSubdiv6v3_6_03Vtr8internal11StackBufferIiLj20ELb1EE10deallocateEv(ptr noundef nonnull align 8 dereferenceable(104) %0) #0 comdat align 2 {
  %2 = alloca ptr, align 8
  store ptr %0, ptr %2, align 8
  %3 = load ptr, ptr %2, align 8
  %4 = getelementptr inbounds nuw %"class.OpenSubdiv::v3_6_0::Vtr::internal::StackBuffer.4", ptr %3, i32 0, i32 4
  %5 = load ptr, ptr %4, align 8
  call void @_ZdlPv(ptr noundef %5) #10
  %6 = getelementptr inbounds nuw %"class.OpenSubdiv::v3_6_0::Vtr::internal::StackBuffer.4", ptr %3, i32 0, i32 3
  %7 = getelementptr inbounds [80 x i8], ptr %6, i64 0, i64 0
  %8 = getelementptr inbounds nuw %"class.OpenSubdiv::v3_6_0::Vtr::internal::StackBuffer.4", ptr %3, i32 0, i32 0
  store ptr %7, ptr %8, align 8
  %9 = getelementptr inbounds nuw %"class.OpenSubdiv::v3_6_0::Vtr::internal::StackBuffer.4", ptr %3, i32 0, i32 2
  store i32 20, ptr %9, align 4
  ret void
}

; Function Attrs: mustprogress nounwind uwtable
define linkonce_odr noundef ptr @_ZN10OpenSubdiv6v3_6_03Vtr8internal11StackBufferIiLj20ELb1EEcvPiEv(ptr noundef nonnull align 8 dereferenceable(104) %0) #0 comdat align 2 {
  %2 = alloca ptr, align 8
  store ptr %0, ptr %2, align 8
  %3 = load ptr, ptr %2, align 8
  %4 = getelementptr inbounds nuw %"class.OpenSubdiv::v3_6_0::Vtr::internal::StackBuffer.4", ptr %3, i32 0, i32 0
  %5 = load ptr, ptr %4, align 8
  ret ptr %5
}

; Function Attrs: mustprogress uwtable
define linkonce_odr void @_ZN10OpenSubdiv6v3_6_03Vtr8internal11StackBufferIiLj20ELb1EE7SetSizeEj(ptr noundef nonnull align 8 dereferenceable(104) %0, i32 noundef %1) #1 comdat align 2 {
  %3 = alloca ptr, align 8
  %4 = alloca i32, align 4
  store ptr %0, ptr %3, align 8
  store i32 %1, ptr %4, align 4
  %5 = load ptr, ptr %3, align 8
  %6 = load i32, ptr %4, align 4
  %7 = icmp eq i32 %6, 0
  br i1 %7, label %8, label %9

8:                                                ; preds = %2
  call void @_ZN10OpenSubdiv6v3_6_03Vtr8internal11StackBufferIiLj20ELb1EE10deallocateEv(ptr noundef nonnull align 8 dereferenceable(104) %5)
  br label %17

9:                                                ; preds = %2
  %10 = load i32, ptr %4, align 4
  %11 = getelementptr inbounds nuw %"class.OpenSubdiv::v3_6_0::Vtr::internal::StackBuffer.4", ptr %5, i32 0, i32 2
  %12 = load i32, ptr %11, align 4
  %13 = icmp ugt i32 %10, %12
  br i1 %13, label %14, label %16

14:                                               ; preds = %9
  call void @_ZN10OpenSubdiv6v3_6_03Vtr8internal11StackBufferIiLj20ELb1EE10deallocateEv(ptr noundef nonnull align 8 dereferenceable(104) %5)
  %15 = load i32, ptr %4, align 4
  call void @_ZN10OpenSubdiv6v3_6_03Vtr8internal11StackBufferIiLj20ELb1EE8allocateEj(ptr noundef nonnull align 8 dereferenceable(104) %5, i32 noundef %15)
  br label %16

16:                                               ; preds = %14, %9
  br label %17

17:                                               ; preds = %16, %8
  %18 = load i32, ptr %4, align 4
  %19 = getelementptr inbounds nuw %"class.OpenSubdiv::v3_6_0::Vtr::internal::StackBuffer.4", ptr %5, i32 0, i32 1
  store i32 %18, ptr %19, align 8
  ret void
}

; Function Attrs: mustprogress nounwind uwtable
define linkonce_odr void @_ZN10OpenSubdiv6v3_6_03Bfr8internal11SurfaceData8setValidEb(ptr noundef nonnull align 8 dereferenceable(128) %0, i1 noundef zeroext %1) #0 comdat align 2 {
  %3 = alloca ptr, align 8
  %4 = alloca i8, align 1
  store ptr %0, ptr %3, align 8
  %5 = zext i1 %1 to i8
  store i8 %5, ptr %4, align 1
  %6 = load ptr, ptr %3, align 8
  %7 = load i8, ptr %4, align 1
  %8 = trunc i8 %7 to i1
  %9 = zext i1 %8 to i8
  %10 = getelementptr inbounds nuw %"class.OpenSubdiv::v3_6_0::Bfr::internal::SurfaceData", ptr %6, i32 0, i32 2
  %11 = load i8, ptr %10, align 4
  %12 = and i8 %9, 1
  %13 = and i8 %11, -2
  %14 = or i8 %13, %12
  store i8 %14, ptr %10, align 4
  ret void
}

; Function Attrs: mustprogress uwtable
define linkonce_odr noundef ptr @_ZN10OpenSubdiv6v3_6_03Bfr8internal11SurfaceData9resizeCVsEi(ptr noundef nonnull align 8 dereferenceable(128) %0, i32 noundef %1) #1 comdat align 2 {
  %3 = alloca ptr, align 8
  %4 = alloca i32, align 4
  store ptr %0, ptr %3, align 8
  store i32 %1, ptr %4, align 4
  %5 = load ptr, ptr %3, align 8
  %6 = getelementptr inbounds nuw %"class.OpenSubdiv::v3_6_0::Bfr::internal::SurfaceData", ptr %5, i32 0, i32 0
  %7 = load i32, ptr %4, align 4
  call void @_ZN10OpenSubdiv6v3_6_03Vtr8internal11StackBufferIiLj20ELb1EE7SetSizeEj(ptr noundef nonnull align 8 dereferenceable(104) %6, i32 noundef %7)
  %8 = getelementptr inbounds nuw %"class.OpenSubdiv::v3_6_0::Bfr::internal::SurfaceData", ptr %5, i32 0, i32 0
  %9 = call noundef ptr @_ZN10OpenSubdiv6v3_6_03Vtr8internal11StackBufferIiLj20ELb1EEcvPiEv(ptr noundef nonnull align 8 dereferenceable(104) %8)
  %10 = getelementptr inbounds i32, ptr %9, i64 0
  ret ptr %10
}

; Function Attrs: mustprogress nounwind uwtable
define linkonce_odr void @_ZN10OpenSubdiv6v3_6_03Bfr8internal11SurfaceData15setRegPatchTypeEi(ptr noundef nonnull align 8 dereferenceable(128) %0, i32 noundef %1) #0 comdat align 2 {
  %3 = alloca ptr, align 8
  %4 = alloca i32, align 4
  store ptr %0, ptr %3, align 8
  store i32 %1, ptr %4, align 4
  %5 = load ptr, ptr %3, align 8
  %6 = load i32, ptr %4, align 4
  %7 = trunc i32 %6 to i8
  %8 = getelementptr inbounds nuw %"class.OpenSubdiv::v3_6_0::Bfr::internal::SurfaceData", ptr %5, i32 0, i32 3
  store i8 %7, ptr %8, align 1
  ret void
}

; Function Attrs: mustprogress nounwind uwtable
define linkonce_odr void @_ZN10OpenSubdiv6v3_6_03Bfr8internal11SurfaceData15setRegPatchMaskEi(ptr noundef nonnull align 8 dereferenceable(128) %0, i32 noundef %1) #0 comdat align 2 {
  %3 = alloca ptr, align 8
  %4 = alloca i32, align 4
  store ptr %0, ptr %3, align 8
  store i32 %1, ptr %4, align 4
  %5 = load ptr, ptr %3, align 8
  %6 = load i32, ptr %4, align 4
  %7 = trunc i32 %6 to i8
  %8 = getelementptr inbounds nuw %"class.OpenSubdiv::v3_6_0::Bfr::internal::SurfaceData", ptr %5, i32 0, i32 4
  store i8 %7, ptr %8, align 2
  ret void
}

; Function Attrs: mustprogress nounwind uwtable
define linkonce_odr void @_ZN10OpenSubdiv6v3_6_03Bfr8internal11SurfaceData9setLinearEb(ptr noundef nonnull align 8 dereferenceable(128) %0, i1 noundef zeroext %1) #0 comdat align 2 {
  %3 = alloca ptr, align 8
  %4 = alloca i8, align 1
  store ptr %0, ptr %3, align 8
  %5 = zext i1 %1 to i8
  store i8 %5, ptr %4, align 1
  %6 = load ptr, ptr %3, align 8
  %7 = load i8, ptr %4, align 1
  %8 = trunc i8 %7 to i1
  %9 = zext i1 %8 to i8
  %10 = getelementptr inbounds nuw %"class.OpenSubdiv::v3_6_0::Bfr::internal::SurfaceData", ptr %6, i32 0, i32 2
  %11 = load i8, ptr %10, align 4
  %12 = and i8 %9, 1
  %13 = shl i8 %12, 3
  %14 = and i8 %11, -9
  %15 = or i8 %14, %13
  store i8 %15, ptr %10, align 4
  ret void
}

; Function Attrs: mustprogress nounwind uwtable
define linkonce_odr void @_ZN10OpenSubdiv6v3_6_03Bfr8internal11SurfaceData10setRegularEb(ptr noundef nonnull align 8 dereferenceable(128) %0, i1 noundef zeroext %1) #0 comdat align 2 {
  %3 = alloca ptr, align 8
  %4 = alloca i8, align 1
  store ptr %0, ptr %3, align 8
  %5 = zext i1 %1 to i8
  store i8 %5, ptr %4, align 1
  %6 = load ptr, ptr %3, align 8
  %7 = load i8, ptr %4, align 1
  %8 = trunc i8 %7 to i1
  %9 = zext i1 %8 to i8
  %10 = getelementptr inbounds nuw %"class.OpenSubdiv::v3_6_0::Bfr::internal::SurfaceData", ptr %6, i32 0, i32 2
  %11 = load i8, ptr %10, align 4
  %12 = and i8 %9, 1
  %13 = shl i8 %12, 2
  %14 = and i8 %11, -5
  %15 = or i8 %14, %13
  store i8 %15, ptr %10, align 4
  ret void
}

; Function Attrs: mustprogress nounwind uwtable
define linkonce_odr void @_ZN10OpenSubdiv6v3_6_03Bfr8internal11SurfaceData8setParamENS1_16ParameterizationE(ptr noundef nonnull align 8 dereferenceable(128) %0, i32 %1) #0 comdat align 2 {
  %3 = alloca %"class.OpenSubdiv::v3_6_0::Bfr::Parameterization", align 2
  %4 = alloca ptr, align 8
  store i32 %1, ptr %3, align 2
  store ptr %0, ptr %4, align 8
  %5 = load ptr, ptr %4, align 8
  %6 = getelementptr inbounds nuw %"class.OpenSubdiv::v3_6_0::Bfr::internal::SurfaceData", ptr %5, i32 0, i32 1
  call void @llvm.memcpy.p0.p0.i64(ptr align 8 %6, ptr align 2 %3, i64 4, i1 false)
  ret void
}

; Function Attrs: mustprogress uwtable
define void @_ZNK10OpenSubdiv6v3_6_03Bfr14SurfaceFactory19assignLinearSurfaceEPNS1_8internal11SurfaceDataEiPKl(ptr noundef nonnull align 8 dereferenceable(56) %0, ptr noundef %1, i32 noundef %2, ptr noundef %3) #1 align 2 {
  %5 = alloca ptr, align 8
  %6 = alloca ptr, align 8
  %7 = alloca i32, align 4
  %8 = alloca ptr, align 8
  %9 = alloca ptr, align 8
  %10 = alloca i32, align 4
  %11 = alloca %"class.OpenSubdiv::v3_6_0::Bfr::Parameterization", align 2
  %12 = alloca ptr, align 8
  %13 = alloca i32, align 4
  store ptr %0, ptr %5, align 8
  store ptr %1, ptr %6, align 8
  store i32 %2, ptr %7, align 4
  store ptr %3, ptr %8, align 8
  %14 = load ptr, ptr %5, align 8
  %15 = load ptr, ptr %6, align 8
  store ptr %15, ptr %9, align 8
  %16 = load i32, ptr %7, align 4
  %17 = load ptr, ptr %14, align 8
  %18 = getelementptr inbounds ptr, ptr %17, i64 3
  %19 = load ptr, ptr %18, align 8
  %20 = call noundef i32 %19(ptr noundef nonnull align 8 dereferenceable(8) %14, i32 noundef %16)
  store i32 %20, ptr %10, align 4
  %21 = load ptr, ptr %9, align 8
  %22 = getelementptr inbounds nuw %"class.OpenSubdiv::v3_6_0::Bfr::SurfaceFactory", ptr %14, i32 0, i32 1
  %23 = load i32, ptr %22, align 8
  %24 = load i32, ptr %10, align 4
  call void @_ZN10OpenSubdiv6v3_6_03Bfr16ParameterizationC1ENS0_3Sdc10SchemeTypeEi(ptr noundef nonnull align 2 dereferenceable(4) %11, i32 noundef %23, i32 noundef %24)
  %25 = load i32, ptr %11, align 2
  call void @_ZN10OpenSubdiv6v3_6_03Bfr8internal11SurfaceData8setParamENS1_16ParameterizationE(ptr noundef nonnull align 8 dereferenceable(128) %21, i32 %25)
  %26 = load ptr, ptr %9, align 8
  %27 = load i32, ptr %10, align 4
  %28 = getelementptr inbounds nuw %"class.OpenSubdiv::v3_6_0::Bfr::SurfaceFactory", ptr %14, i32 0, i32 5
  %29 = load i32, ptr %28, align 4
  %30 = icmp eq i32 %27, %29
  call void @_ZN10OpenSubdiv6v3_6_03Bfr8internal11SurfaceData10setRegularEb(ptr noundef nonnull align 8 dereferenceable(128) %26, i1 noundef zeroext %30)
  %31 = load ptr, ptr %9, align 8
  call void @_ZN10OpenSubdiv6v3_6_03Bfr8internal11SurfaceData9setLinearEb(ptr noundef nonnull align 8 dereferenceable(128) %31, i1 noundef zeroext true)
  %32 = load ptr, ptr %9, align 8
  call void @_ZN10OpenSubdiv6v3_6_03Bfr8internal11SurfaceData15setRegPatchMaskEi(ptr noundef nonnull align 8 dereferenceable(128) %32, i32 noundef 0)
  %33 = getelementptr inbounds nuw %"class.OpenSubdiv::v3_6_0::Bfr::SurfaceFactory", ptr %14, i32 0, i32 5
  %34 = load i32, ptr %33, align 4
  %35 = icmp eq i32 %34, 4
  br i1 %35, label %36, label %38

36:                                               ; preds = %4
  %37 = load ptr, ptr %9, align 8
  call void @_ZN10OpenSubdiv6v3_6_03Bfr8internal11SurfaceData15setRegPatchTypeEi(ptr noundef nonnull align 8 dereferenceable(128) %37, i32 noundef 3)
  br label %40

38:                                               ; preds = %4
  %39 = load ptr, ptr %9, align 8
  call void @_ZN10OpenSubdiv6v3_6_03Bfr8internal11SurfaceData15setRegPatchTypeEi(ptr noundef nonnull align 8 dereferenceable(128) %39, i32 noundef 4)
  br label %40

40:                                               ; preds = %38, %36
  %41 = load ptr, ptr %9, align 8
  %42 = load i32, ptr %10, align 4
  %43 = call noundef ptr @_ZN10OpenSubdiv6v3_6_03Bfr8internal11SurfaceData9resizeCVsEi(ptr noundef nonnull align 8 dereferenceable(128) %41, i32 noundef %42)
  store ptr %43, ptr %12, align 8
  store i32 0, ptr %13, align 4
  %44 = load ptr, ptr %8, align 8
  %45 = icmp eq ptr %44, null
  br i1 %45, label %46, label %53

46:                                               ; preds = %40
  %47 = load i32, ptr %7, align 4
  %48 = load ptr, ptr %12, align 8
  %49 = load ptr, ptr %14, align 8
  %50 = getelementptr inbounds ptr, ptr %49, i64 4
  %51 = load ptr, ptr %50, align 8
  %52 = call noundef i32 %51(ptr noundef nonnull align 8 dereferenceable(8) %14, i32 noundef %47, ptr noundef %48)
  store i32 %52, ptr %13, align 4
  br label %62

53:                                               ; preds = %40
  %54 = load i32, ptr %7, align 4
  %55 = load ptr, ptr %8, align 8
  %56 = load i64, ptr %55, align 8
  %57 = load ptr, ptr %12, align 8
  %58 = load ptr, ptr %14, align 8
  %59 = getelementptr inbounds ptr, ptr %58, i64 5
  %60 = load ptr, ptr %59, align 8
  %61 = call noundef i32 %60(ptr noundef nonnull align 8 dereferenceable(8) %14, i32 noundef %54, i64 noundef %56, ptr noundef %57)
  store i32 %61, ptr %13, align 4
  br label %62

62:                                               ; preds = %53, %46
  %63 = load i32, ptr %13, align 4
  %64 = load i32, ptr %10, align 4
  %65 = icmp slt i32 %63, %64
  br i1 %65, label %66, label %67

66:                                               ; preds = %62
  br label %69

67:                                               ; preds = %62
  %68 = load ptr, ptr %9, align 8
  call void @_ZN10OpenSubdiv6v3_6_03Bfr8internal11SurfaceData8setValidEb(ptr noundef nonnull align 8 dereferenceable(128) %68, i1 noundef zeroext true)
  br label %69

69:                                               ; preds = %67, %66
  ret void
}