; Function Attrs: mustprogress uwtable
define void @_ZNK10OpenSubdiv6v3_6_03Bfr14SurfaceFactory19assignLinearSurfaceEPNS1_8internal11SurfaceDataEiPKl(ptr noundef nonnull align 8 dereferenceable(56) %0, ptr noundef initializes((104, 108), (109, 111)) %1, i32 noundef %2, ptr noundef readonly %3) local_unnamed_addr #2 align 2 {
  %5 = alloca %"class.OpenSubdiv::v3_6_0::Bfr::Parameterization", align 4
  %6 = load ptr, ptr %0, align 8
  %7 = getelementptr inbounds nuw i8, ptr %6, i64 24
  %8 = load ptr, ptr %7, align 8
  %9 = tail call noundef i32 %8(ptr noundef nonnull align 8 dereferenceable(8) %0, i32 noundef %2)
  %10 = getelementptr inbounds nuw i8, ptr %0, i64 8
  %11 = load i32, ptr %10, align 8
  call void @_ZN10OpenSubdiv6v3_6_03Bfr16ParameterizationC1ENS0_3Sdc10SchemeTypeEi(ptr noundef nonnull align 2 dereferenceable(4) %5, i32 noundef %11, i32 noundef %9)
  %12 = load i32, ptr %5, align 4
  %13 = getelementptr inbounds nuw i8, ptr %1, i64 104
  store i32 %12, ptr %13, align 8
  %14 = getelementptr inbounds nuw i8, ptr %0, i64 44
  %15 = load i32, ptr %14, align 4
  %16 = icmp eq i32 %9, %15
  %17 = getelementptr inbounds nuw i8, ptr %1, i64 108
  %18 = load i8, ptr %17, align 4
  %19 = and i8 %18, -13
  %20 = select i1 %16, i8 12, i8 8
  %21 = or disjoint i8 %20, %19
  store i8 %21, ptr %17, align 4
  %22 = getelementptr inbounds nuw i8, ptr %1, i64 110
  store i8 0, ptr %22, align 2
  %23 = load i32, ptr %14, align 4
  %24 = icmp eq i32 %23, 4
  %spec.select = select i1 %24, i8 3, i8 4
  %25 = getelementptr inbounds nuw i8, ptr %1, i64 109
  store i8 %spec.select, ptr %25, align 1
  %26 = icmp eq i32 %9, 0
  br i1 %26, label %27, label %32

27:                                               ; preds = %4
  %28 = getelementptr inbounds nuw i8, ptr %1, i64 96
  %29 = load ptr, ptr %28, align 8
  call void @_ZdlPv(ptr noundef %29) #16
  %30 = getelementptr inbounds nuw i8, ptr %1, i64 16
  store ptr %30, ptr %1, align 8
  %31 = getelementptr inbounds nuw i8, ptr %1, i64 12
  store i32 20, ptr %31, align 4
  br label %_ZN10OpenSubdiv6v3_6_03Bfr8internal11SurfaceData9resizeCVsEi.exit

32:                                               ; preds = %4
  %33 = getelementptr inbounds nuw i8, ptr %1, i64 12
  %34 = load i32, ptr %33, align 4
  %35 = icmp ugt i32 %9, %34
  br i1 %35, label %36, label %._ZN10OpenSubdiv6v3_6_03Vtr8internal11StackBufferIiLj20ELb1EE7SetSizeEj.exit_crit_edge.i

._ZN10OpenSubdiv6v3_6_03Vtr8internal11StackBufferIiLj20ELb1EE7SetSizeEj.exit_crit_edge.i: ; preds = %32
  %.pre.i = load ptr, ptr %1, align 8
  br label %_ZN10OpenSubdiv6v3_6_03Bfr8internal11SurfaceData9resizeCVsEi.exit

36:                                               ; preds = %32
  %37 = getelementptr inbounds nuw i8, ptr %1, i64 96
  %38 = load ptr, ptr %37, align 8
  call void @_ZdlPv(ptr noundef %38) #16
  %39 = getelementptr inbounds nuw i8, ptr %1, i64 16
  store ptr %39, ptr %1, align 8
  store i32 20, ptr %33, align 4
  %40 = zext i32 %9 to i64
  %41 = shl nuw nsw i64 %40, 2
  %42 = call noalias noundef nonnull ptr @_Znwm(i64 noundef %41) #17
  store ptr %42, ptr %37, align 8
  store ptr %42, ptr %1, align 8
  store i32 %9, ptr %33, align 4
  br label %_ZN10OpenSubdiv6v3_6_03Bfr8internal11SurfaceData9resizeCVsEi.exit

_ZN10OpenSubdiv6v3_6_03Bfr8internal11SurfaceData9resizeCVsEi.exit: ; preds = %27, %._ZN10OpenSubdiv6v3_6_03Vtr8internal11StackBufferIiLj20ELb1EE7SetSizeEj.exit_crit_edge.i, %36
  %43 = phi ptr [ %.pre.i, %._ZN10OpenSubdiv6v3_6_03Vtr8internal11StackBufferIiLj20ELb1EE7SetSizeEj.exit_crit_edge.i ], [ %30, %27 ], [ %42, %36 ]
  %44 = getelementptr inbounds nuw i8, ptr %1, i64 8
  store i32 %9, ptr %44, align 8
  %45 = icmp eq ptr %3, null
  br i1 %45, label %46, label %51

46:                                               ; preds = %_ZN10OpenSubdiv6v3_6_03Bfr8internal11SurfaceData9resizeCVsEi.exit
  %47 = load ptr, ptr %0, align 8
  %48 = getelementptr inbounds nuw i8, ptr %47, i64 32
  %49 = load ptr, ptr %48, align 8
  %50 = call noundef i32 %49(ptr noundef nonnull align 8 dereferenceable(8) %0, i32 noundef %2, ptr noundef %43)
  br label %57

51:                                               ; preds = %_ZN10OpenSubdiv6v3_6_03Bfr8internal11SurfaceData9resizeCVsEi.exit
  %52 = load i64, ptr %3, align 8
  %53 = load ptr, ptr %0, align 8
  %54 = getelementptr inbounds nuw i8, ptr %53, i64 40
  %55 = load ptr, ptr %54, align 8
  %56 = call noundef i32 %55(ptr noundef nonnull align 8 dereferenceable(8) %0, i32 noundef %2, i64 noundef %52, ptr noundef %43)
  br label %57

57:                                               ; preds = %51, %46
  %.0 = phi i32 [ %50, %46 ], [ %56, %51 ]
  %58 = icmp slt i32 %.0, %9
  br i1 %58, label %62, label %59

59:                                               ; preds = %57
  %60 = load i8, ptr %17, align 4
  %61 = or i8 %60, 1
  store i8 %61, ptr %17, align 4
  br label %62

62:                                               ; preds = %57, %59
  ret void
}